target datalayout = "e-m:e-p270:32:32-p271:32:32-p272:64:64-i64:64-i128:128-f80:128-n8:16:32:64-S128"
target triple = "x86_64-pc-linux-gnu"

%struct.GCRef = type { i64 }
%struct.lua_State = type { %struct.GCRef, i8, i8, i8, i8, %struct.MRef, %struct.GCRef, ptr, ptr, %struct.MRef, %struct.MRef, %struct.GCRef, %struct.GCRef, ptr, i32 }
%struct.MRef = type { i64 }
%union.TValue = type { i64 }

@lj_obj_itypename = external hidden constant [14 x ptr], align 16

; Function Attrs: alwaysinline nounwind uwtable
define internal void @setgcVraw(ptr noundef %0, ptr noundef %1, i32 noundef %2) #3 {
  %4 = alloca ptr, align 8
  %5 = alloca ptr, align 8
  %6 = alloca i32, align 4
  store ptr %0, ptr %4, align 8, !tbaa !25
  store ptr %1, ptr %5, align 8, !tbaa !74
  store i32 %2, ptr %6, align 4, !tbaa !4
  %7 = load ptr, ptr %5, align 8, !tbaa !74
  %8 = ptrtoint ptr %7 to i64
  %9 = load i32, ptr %6, align 4, !tbaa !4
  %10 = zext i32 %9 to i64
  %11 = shl i64 %10, 47
  %12 = or i64 %8, %11
  %13 = load ptr, ptr %4, align 8, !tbaa !25
  %14 = getelementptr inbounds nuw %struct.GCRef, ptr %13, i32 0, i32 0
  store i64 %12, ptr %14, align 8, !tbaa !28
  ret void
}

; Function Attrs: noinline noreturn nounwind uwtable
define hidden void @lj_err_optype_call(ptr noundef %0, ptr noundef %1) #6 {
  %3 = alloca ptr, align 8
  %4 = alloca ptr, align 8
  %5 = alloca ptr, align 8
  %6 = alloca ptr, align 8
  store ptr %0, ptr %3, align 8, !tbaa !18
  store ptr %1, ptr %4, align 8, !tbaa !25
  call void @llvm.lifetime.start.p0(i64 8, ptr %5) #15
  %7 = load ptr, ptr %3, align 8, !tbaa !18
  %8 = getelementptr inbounds nuw %struct.lua_State, ptr %7, i32 0, i32 13
  %9 = load ptr, ptr %8, align 8, !tbaa !26
  %10 = ptrtoint ptr %9 to i64
  %11 = and i64 %10, -4
  %12 = inttoptr i64 %11 to ptr
  %13 = getelementptr inbounds i8, ptr %12, i64 24
  %14 = getelementptr inbounds nuw %struct.MRef, ptr %13, i32 0, i32 0
  %15 = load i64, ptr %14, align 8, !tbaa !82
  %16 = inttoptr i64 %15 to ptr
  store ptr %16, ptr %5, align 8, !tbaa !83
  %17 = load ptr, ptr %5, align 8, !tbaa !83
  %18 = ptrtoint ptr %17 to i64
  %19 = and i64 %18, 3
  %20 = icmp ne i64 %19, 0
  br i1 %20, label %21, label %54

21:                                               ; preds = %2
  call void @llvm.lifetime.start.p0(i64 8, ptr %6) #15
  %22 = load ptr, ptr %4, align 8, !tbaa !25
  %23 = load i64, ptr %22, align 8, !tbaa !28
  %24 = ashr i64 %23, 47
  %25 = trunc i64 %24 to i32
  %26 = icmp ule i32 %25, -14
  br i1 %26, label %27, label %28

27:                                               ; preds = %21
  br label %34

28:                                               ; preds = %21
  %29 = load ptr, ptr %4, align 8, !tbaa !25
  %30 = load i64, ptr %29, align 8, !tbaa !28
  %31 = ashr i64 %30, 47
  %32 = trunc i64 %31 to i32
  %33 = xor i32 %32, -1
  br label %34

34:                                               ; preds = %28, %27
  %35 = phi i32 [ 13, %27 ], [ %33, %28 ]
  %36 = zext i32 %35 to i64
  %37 = getelementptr inbounds nuw [14 x ptr], ptr @lj_obj_itypename, i64 0, i64 %36
  %38 = load ptr, ptr %37, align 8, !tbaa !50
  store ptr %38, ptr %6, align 8, !tbaa !50
  %39 = load ptr, ptr %4, align 8, !tbaa !25
  %40 = load ptr, ptr %3, align 8, !tbaa !18
  call void @setgcVraw(ptr noundef %39, ptr noundef %40, i32 noundef -7)
  %41 = load ptr, ptr %4, align 8, !tbaa !25
  %42 = getelementptr inbounds nuw %union.TValue, ptr %41, i32 1
  store ptr %42, ptr %4, align 8, !tbaa !25
  %43 = load ptr, ptr %5, align 8, !tbaa !83
  %44 = ptrtoint ptr %43 to i64
  %45 = load ptr, ptr %4, align 8, !tbaa !25
  store i64 %44, ptr %45, align 8, !tbaa !28
  %46 = load ptr, ptr %4, align 8, !tbaa !25
  %47 = getelementptr inbounds %union.TValue, ptr %46, i64 1
  %48 = load ptr, ptr %3, align 8, !tbaa !18
  %49 = getelementptr inbounds nuw %struct.lua_State, ptr %48, i32 0, i32 7
  store ptr %47, ptr %49, align 8, !tbaa !24
  %50 = load ptr, ptr %3, align 8, !tbaa !18
  %51 = getelementptr inbounds nuw %struct.lua_State, ptr %50, i32 0, i32 8
  store ptr %47, ptr %51, align 8, !tbaa !20
  %52 = load ptr, ptr %3, align 8, !tbaa !18
  %53 = load ptr, ptr %6, align 8, !tbaa !50
  call void (ptr, i32, ...) @err_msgv(ptr noundef %52, i32 noundef 214, ptr noundef %53) #18
  unreachable

54:                                               ; preds = %2
  %55 = load ptr, ptr %3, align 8, !tbaa !18
  %56 = load ptr, ptr %4, align 8, !tbaa !25
  call void @lj_err_optype(ptr noundef %55, ptr noundef %56, i32 noundef 398) #18
  unreachable
}