; Function Attrs: noinline noreturn nounwind uwtable
define hidden void @lj_err_optype_call(ptr noundef %0, ptr noundef %1) local_unnamed_addr #5 {
  %3 = getelementptr inbounds nuw i8, ptr %0, i64 80
  %4 = load ptr, ptr %3, align 8, !tbaa !9
  %5 = ptrtoint ptr %4 to i64
  %6 = and i64 %5, -4
  %7 = inttoptr i64 %6 to ptr
  %8 = getelementptr inbounds nuw i8, ptr %7, i64 24
  %9 = load i64, ptr %8, align 8, !tbaa !67
  %10 = and i64 %9, 3
  %.not = icmp eq i64 %10, 0
  br i1 %.not, label %23, label %11

11:                                               ; preds = %2
  %12 = load i64, ptr %1, align 8, !tbaa !18
  %13 = ashr i64 %12, 47
  %14 = tail call i64 @llvm.umax.i64(i64 %13, i64 -14)
  %spec.select = xor i64 %14, -1
  %15 = getelementptr inbounds nuw [14 x ptr], ptr @lj_obj_itypename, i64 0, i64 %spec.select
  %16 = load ptr, ptr %15, align 8, !tbaa !36
  %17 = ptrtoint ptr %0 to i64
  %18 = or i64 %17, -985162418487296
  store i64 %18, ptr %1, align 8, !tbaa !18
  %19 = getelementptr inbounds nuw i8, ptr %1, i64 8
  store i64 %9, ptr %19, align 8, !tbaa !18
  %20 = getelementptr inbounds nuw i8, ptr %1, i64 16
  %21 = getelementptr inbounds nuw i8, ptr %0, i64 32
  store ptr %20, ptr %21, align 8, !tbaa !15
  %22 = getelementptr inbounds nuw i8, ptr %0, i64 40
  store ptr %20, ptr %22, align 8, !tbaa !20
  tail call void (ptr, i32, ...) @err_msgv(ptr noundef nonnull %0, i32 noundef 214, ptr noundef %16) #19
  unreachable

23:                                               ; preds = %2
  tail call void @lj_err_optype(ptr noundef nonnull %0, ptr noundef %1, i32 noundef 398) #19
  unreachable
}